; Function Attrs: nounwind uwtable
define range(i32 -1, 1) i32 @H5C_log_write_unprotect_entry_msg(ptr nocapture noundef readonly %0, i64 noundef %1, i32 noundef %2, i32 noundef %3, i32 noundef %4) local_unnamed_addr #0 {
  %6 = getelementptr inbounds i8, ptr %0, i64 8
  %7 = load ptr, ptr %6, align 8
  %8 = getelementptr inbounds i8, ptr %7, i64 8
  %9 = load ptr, ptr %8, align 8
  %10 = getelementptr inbounds i8, ptr %9, i64 184
  %11 = load ptr, ptr %10, align 8
  %.not = icmp eq ptr %11, null
  br i1 %.not, label %21, label %12

12:                                               ; preds = %5
  %13 = getelementptr inbounds i8, ptr %7, i64 16
  %14 = load ptr, ptr %13, align 8
  %15 = tail call i32 %11(ptr noundef %14, i64 noundef %1, i32 noundef %2, i32 noundef %3, i32 noundef %4) #3
  %16 = icmp slt i32 %15, 0
  br i1 %16, label %17, label %21

17:                                               ; preds = %12
  %18 = load i64, ptr @H5E_CACHE_g, align 8
  %19 = load i64, ptr @H5E_LOGGING_g, align 8
  %20 = tail call i32 (ptr, ptr, i32, i64, i64, ptr, ...) @H5E_printf_stack(ptr noundef nonnull @.str, ptr noundef nonnull @__func__.H5C_log_write_unprotect_entry_msg, i32 noundef 807, i64 noundef %18, i64 noundef %19, ptr noundef nonnull @.str.31) #3
  br label %21

21:                                               ; preds = %5, %12, %17
  %.0 = phi i32 [ -1, %17 ], [ 0, %12 ], [ 0, %5 ]
  ret i32 %.0
}